; Function Attrs: nofree norecurse nosync nounwind memory(readwrite, inaccessiblemem: none) uwtable
define internal void @mix8to2_float(ptr noundef readonly captures(none) %0, ptr noundef readonly captures(none) %1, ptr noundef readonly captures(none) %2, i32 noundef %3) #9 {
  %5 = icmp sgt i32 %3, 0
  br i1 %5, label %.lr.ph, label %._crit_edge

.lr.ph:                                           ; preds = %4
  %6 = getelementptr inbounds nuw i8, ptr %1, i64 16
  %7 = load ptr, ptr %6, align 8, !tbaa !111
  %8 = getelementptr inbounds nuw i8, ptr %2, i64 8
  %9 = getelementptr inbounds nuw i8, ptr %1, i64 24
  %10 = load ptr, ptr %9, align 8, !tbaa !111
  %11 = getelementptr inbounds nuw i8, ptr %2, i64 12
  %12 = load ptr, ptr %1, align 8, !tbaa !111
  %13 = getelementptr inbounds nuw i8, ptr %1, i64 32
  %14 = load ptr, ptr %13, align 8, !tbaa !111
  %15 = getelementptr inbounds nuw i8, ptr %2, i64 16
  %16 = getelementptr inbounds nuw i8, ptr %1, i64 48
  %17 = load ptr, ptr %16, align 8, !tbaa !111
  %18 = getelementptr inbounds nuw i8, ptr %2, i64 24
  %19 = load ptr, ptr %0, align 8, !tbaa !111
  %20 = getelementptr inbounds nuw i8, ptr %1, i64 8
  %21 = load ptr, ptr %20, align 8, !tbaa !111
  %22 = getelementptr inbounds nuw i8, ptr %2, i64 36
  %23 = getelementptr inbounds nuw i8, ptr %1, i64 40
  %24 = load ptr, ptr %23, align 8, !tbaa !111
  %25 = getelementptr inbounds nuw i8, ptr %2, i64 52
  %26 = getelementptr inbounds nuw i8, ptr %1, i64 56
  %27 = load ptr, ptr %26, align 8, !tbaa !111
  %28 = getelementptr inbounds nuw i8, ptr %2, i64 60
  %29 = getelementptr inbounds nuw i8, ptr %0, i64 8
  %30 = load ptr, ptr %29, align 8, !tbaa !111
  %wide.trip.count = zext nneg i32 %3 to i64
  br label %31

31:                                               ; preds = %.lr.ph, %31
  %indvars.iv = phi i64 [ 0, %.lr.ph ], [ %indvars.iv.next, %31 ]
  %32 = getelementptr inbounds nuw float, ptr %7, i64 %indvars.iv
  %33 = load float, ptr %32, align 4, !tbaa !25
  %34 = load float, ptr %8, align 4, !tbaa !25
  %35 = getelementptr inbounds nuw float, ptr %10, i64 %indvars.iv
  %36 = load float, ptr %35, align 4, !tbaa !25
  %37 = load float, ptr %11, align 4, !tbaa !25
  %38 = fmul nsz float %36, %37
  %39 = tail call nsz float @llvm.fmuladd.f32(float %33, float %34, float %38)
  %40 = getelementptr inbounds nuw float, ptr %12, i64 %indvars.iv
  %41 = load float, ptr %40, align 4, !tbaa !25
  %42 = load float, ptr %2, align 4, !tbaa !25
  %43 = tail call nsz float @llvm.fmuladd.f32(float %41, float %42, float %39)
  %44 = getelementptr inbounds nuw float, ptr %14, i64 %indvars.iv
  %45 = load float, ptr %44, align 4, !tbaa !25
  %46 = load float, ptr %15, align 4, !tbaa !25
  %47 = tail call nsz float @llvm.fmuladd.f32(float %45, float %46, float %43)
  %48 = getelementptr inbounds nuw float, ptr %17, i64 %indvars.iv
  %49 = load float, ptr %48, align 4, !tbaa !25
  %50 = load float, ptr %18, align 4, !tbaa !25
  %51 = tail call nsz float @llvm.fmuladd.f32(float %49, float %50, float %47)
  %52 = getelementptr inbounds nuw float, ptr %19, i64 %indvars.iv
  store float %51, ptr %52, align 4, !tbaa !25
  %53 = getelementptr inbounds nuw float, ptr %21, i64 %indvars.iv
  %54 = load float, ptr %53, align 4, !tbaa !25
  %55 = load float, ptr %22, align 4, !tbaa !25
  %56 = tail call nsz float @llvm.fmuladd.f32(float %54, float %55, float %39)
  %57 = getelementptr inbounds nuw float, ptr %24, i64 %indvars.iv
  %58 = load float, ptr %57, align 4, !tbaa !25
  %59 = load float, ptr %25, align 4, !tbaa !25
  %60 = tail call nsz float @llvm.fmuladd.f32(float %58, float %59, float %56)
  %61 = getelementptr inbounds nuw float, ptr %27, i64 %indvars.iv
  %62 = load float, ptr %61, align 4, !tbaa !25
  %63 = load float, ptr %28, align 4, !tbaa !25
  %64 = tail call nsz float @llvm.fmuladd.f32(float %62, float %63, float %60)
  %65 = getelementptr inbounds nuw float, ptr %30, i64 %indvars.iv
  store float %64, ptr %65, align 4, !tbaa !25
  %indvars.iv.next = add nuw nsw i64 %indvars.iv, 1
  %exitcond.not = icmp eq i64 %indvars.iv.next, %wide.trip.count
  br i1 %exitcond.not, label %._crit_edge, label %31, !llvm.loop !114

._crit_edge:                                      ; preds = %31, %4
  ret void
}